; ModuleID = '40/1185.c'
source_filename = "40/1185.c"
target datalayout = "e-m:e-p270:32:32-p271:32:32-p272:64:64-i64:64-f80:128-n8:16:32:64-S128"
target triple = "x86_64-pc-linux-gnu"

@.str = private unnamed_addr constant [4 x i8] c"%lf\00", align 1
@.str.1 = private unnamed_addr constant [14 x i8] c"Invalid input\00", align 1
@.str.2 = private unnamed_addr constant [5 x i8] c"%.4f\00", align 1

; Function Attrs: noinline nounwind uwtable
define dso_local i32 @main() #0 {
  %1 = alloca i32, align 4
  %2 = alloca double, align 8
  %3 = alloca double, align 8
  %4 = alloca double, align 8
  %5 = alloca double, align 8
  %6 = alloca double, align 8
  %7 = alloca double, align 8
  store i32 0, i32* %1, align 4
  %8 = call i32 (i8*, ...) @__isoc99_scanf(i8* getelementptr inbounds ([4 x i8], [4 x i8]* @.str, i64 0, i64 0), double* %2)
  %9 = call i32 (i8*, ...) @__isoc99_scanf(i8* getelementptr inbounds ([4 x i8], [4 x i8]* @.str, i64 0, i64 0), double* %3)
  %10 = call i32 (i8*, ...) @__isoc99_scanf(i8* getelementptr inbounds ([4 x i8], [4 x i8]* @.str, i64 0, i64 0), double* %4)
  %11 = call i32 (i8*, ...) @__isoc99_scanf(i8* getelementptr inbounds ([4 x i8], [4 x i8]* @.str, i64 0, i64 0), double* %5)
  %12 = call i32 (i8*, ...) @__isoc99_scanf(i8* getelementptr inbounds ([4 x i8], [4 x i8]* @.str, i64 0, i64 0), double* %6)
  %13 = load double, double* %2, align 8
  %14 = load double, double* %3, align 8
  %15 = load double, double* %4, align 8
  %16 = load double, double* %5, align 8
  %17 = load double, double* %6, align 8
  %18 = call double @getarea(double %13, double %14, double %15, double %16, double %17)
  store double %18, double* %7, align 8
  %19 = load double, double* %7, align 8
  %20 = fcmp oeq double %19, -1.000000e+00
  br i1 %20, label %21, label %23

21:                                               ; preds = %0
  %22 = call i32 (i8*, ...) @printf(i8* getelementptr inbounds ([14 x i8], [14 x i8]* @.str.1, i64 0, i64 0))
  br label %26

23:                                               ; preds = %0
  %24 = load double, double* %7, align 8
  %25 = call i32 (i8*, ...) @printf(i8* getelementptr inbounds ([5 x i8], [5 x i8]* @.str.2, i64 0, i64 0), double %24)
  br label %26

26:                                               ; preds = %23, %21
  ret i32 0
}

declare dso_local i32 @__isoc99_scanf(i8*, ...) #1

; Function Attrs: noinline nounwind uwtable
define dso_local double @getarea(double %0, double %1, double %2, double %3, double %4) #0 {
  %6 = alloca double, align 8
  %7 = alloca double, align 8
  %8 = alloca double, align 8
  %9 = alloca double, align 8
  %10 = alloca double, align 8
  %11 = alloca double, align 8
  %12 = alloca double, align 8
  store double %0, double* %6, align 8
  store double %1, double* %7, align 8
  store double %2, double* %8, align 8
  store double %3, double* %9, align 8
  store double %4, double* %10, align 8
  %13 = load double, double* %6, align 8
  %14 = load double, double* %7, align 8
  %15 = fadd double %13, %14
  %16 = load double, double* %8, align 8
  %17 = fadd double %15, %16
  %18 = load double, double* %9, align 8
  %19 = fadd double %17, %18
  %20 = fdiv double %19, 2.000000e+00
  store double %20, double* %12, align 8
  %21 = load double, double* %12, align 8
  %22 = load double, double* %6, align 8
  %23 = fsub double %21, %22
  %24 = load double, double* %12, align 8
  %25 = load double, double* %7, align 8
  %26 = fsub double %24, %25
  %27 = fmul double %23, %26
  %28 = load double, double* %12, align 8
  %29 = load double, double* %8, align 8
  %30 = fsub double %28, %29
  %31 = fmul double %27, %30
  %32 = load double, double* %12, align 8
  %33 = load double, double* %9, align 8
  %34 = fsub double %32, %33
  %35 = fmul double %31, %34
  %36 = load double, double* %6, align 8
  %37 = load double, double* %7, align 8
  %38 = fmul double %36, %37
  %39 = load double, double* %8, align 8
  %40 = fmul double %38, %39
  %41 = load double, double* %9, align 8
  %42 = fmul double %40, %41
  %43 = load double, double* %10, align 8
  %44 = fdiv double %43, 3.600000e+02
  %45 = fmul double %44, 0x400921FB4D12D84A
  %46 = call double @cos(double %45) #3
  %47 = fmul double %42, %46
  %48 = load double, double* %10, align 8
  %49 = fdiv double %48, 3.600000e+02
  %50 = fmul double %49, 0x400921FB4D12D84A
  %51 = call double @cos(double %50) #3
  %52 = fmul double %47, %51
  %53 = fsub double %35, %52
  %54 = fcmp oge double %53, 0.000000e+00
  br i1 %54, label %55, label %90

55:                                               ; preds = %5
  %56 = load double, double* %12, align 8
  %57 = load double, double* %6, align 8
  %58 = fsub double %56, %57
  %59 = load double, double* %12, align 8
  %60 = load double, double* %7, align 8
  %61 = fsub double %59, %60
  %62 = fmul double %58, %61
  %63 = load double, double* %12, align 8
  %64 = load double, double* %8, align 8
  %65 = fsub double %63, %64
  %66 = fmul double %62, %65
  %67 = load double, double* %12, align 8
  %68 = load double, double* %9, align 8
  %69 = fsub double %67, %68
  %70 = fmul double %66, %69
  %71 = load double, double* %6, align 8
  %72 = load double, double* %7, align 8
  %73 = fmul double %71, %72
  %74 = load double, double* %8, align 8
  %75 = fmul double %73, %74
  %76 = load double, double* %9, align 8
  %77 = fmul double %75, %76
  %78 = load double, double* %10, align 8
  %79 = fdiv double %78, 3.600000e+02
  %80 = fmul double %79, 0x400921FB4D12D84A
  %81 = call double @cos(double %80) #3
  %82 = fmul double %77, %81
  %83 = load double, double* %10, align 8
  %84 = fdiv double %83, 3.600000e+02
  %85 = fmul double %84, 0x400921FB4D12D84A
  %86 = call double @cos(double %85) #3
  %87 = fmul double %82, %86
  %88 = fsub double %70, %87
  %89 = call double @sqrt(double %88) #3
  store double %89, double* %11, align 8
  br label %91

90:                                               ; preds = %5
  store double -1.000000e+00, double* %11, align 8
  br label %91

91:                                               ; preds = %90, %55
  %92 = load double, double* %11, align 8
  ret double %92
}

declare dso_local i32 @printf(i8*, ...) #1

; Function Attrs: nounwind
declare dso_local double @cos(double) #2

; Function Attrs: nounwind
declare dso_local double @sqrt(double) #2


!llvm.module.flags = !{!0}
!llvm.ident = !{!1}

!0 = !{i32 1, !"wchar_size", i32 4}
!1 = !{!"clang version 10.0.0-4ubuntu1 "}
